; Function Attrs: mustprogress nofree norecurse nosync nounwind willreturn memory(argmem: write) uwtable
define void @glfwGetVersion(ptr noundef writeonly captures(address_is_null) %0, ptr noundef writeonly captures(address_is_null) %1, ptr noundef writeonly captures(address_is_null) %2) local_unnamed_addr #0 {
  %.not = icmp eq ptr %0, null
  br i1 %.not, label %5, label %4

4:                                                ; preds = %3
  store i32 3, ptr %0, align 4, !tbaa !6
  br label %5

5:                                                ; preds = %4, %3
  %.not8 = icmp eq ptr %1, null
  br i1 %.not8, label %7, label %6

6:                                                ; preds = %5
  store i32 4, ptr %1, align 4, !tbaa !6
  br label %7

7:                                                ; preds = %6, %5
  %.not9 = icmp eq ptr %2, null
  br i1 %.not9, label %9, label %8

8:                                                ; preds = %7
  store i32 0, ptr %2, align 4, !tbaa !6
  br label %9

9:                                                ; preds = %8, %7
  ret void
}